target datalayout = "e-m:e-p270:32:32-p271:32:32-p272:64:64-i64:64-i128:128-f80:128-n8:16:32:64-S128"
target triple = "x86_64-pc-linux-gnu"

%struct.sp_int = type { i16, i16, [129 x i64] }

; Function Attrs: nounwind uwtable
define internal i32 @_sp_mul_d(ptr noundef %0, i64 noundef %1, ptr noundef %2, i32 noundef %3) #0 {
  %5 = alloca ptr, align 8
  %6 = alloca i64, align 8
  %7 = alloca ptr, align 8
  %8 = alloca i32, align 4
  %9 = alloca i32, align 4
  %10 = alloca i32, align 4
  %11 = alloca i128, align 16
  %12 = alloca i32, align 4
  store ptr %0, ptr %5, align 8, !tbaa !3
  store i64 %1, ptr %6, align 8, !tbaa !16
  store ptr %2, ptr %7, align 8, !tbaa !3
  store i32 %3, ptr %8, align 4, !tbaa !8
  call void @llvm.lifetime.start.p0(i64 4, ptr %9) #8
  store i32 0, ptr %9, align 4, !tbaa !8
  call void @llvm.lifetime.start.p0(i64 4, ptr %10) #8
  call void @llvm.lifetime.start.p0(i64 16, ptr %11) #8
  store i128 0, ptr %11, align 16, !tbaa !47
  store i32 0, ptr %10, align 4, !tbaa !8
  br label %13

13:                                               ; preds = %42, %4
  %14 = load i32, ptr %10, align 4, !tbaa !8
  %15 = load ptr, ptr %5, align 8, !tbaa !3
  %16 = getelementptr inbounds nuw %struct.sp_int, ptr %15, i32 0, i32 0
  %17 = load i16, ptr %16, align 8, !tbaa !15
  %18 = zext i16 %17 to i32
  %19 = icmp ult i32 %14, %18
  br i1 %19, label %20, label %47

20:                                               ; preds = %13
  %21 = load ptr, ptr %5, align 8, !tbaa !3
  %22 = getelementptr inbounds nuw %struct.sp_int, ptr %21, i32 0, i32 2
  %23 = load i32, ptr %10, align 4, !tbaa !8
  %24 = zext i32 %23 to i64
  %25 = getelementptr inbounds nuw [129 x i64], ptr %22, i64 0, i64 %24
  %26 = load i64, ptr %25, align 8, !tbaa !16
  %27 = zext i64 %26 to i128
  %28 = load i64, ptr %6, align 8, !tbaa !16
  %29 = zext i64 %28 to i128
  %30 = mul i128 %27, %29
  %31 = load i128, ptr %11, align 16, !tbaa !47
  %32 = add i128 %31, %30
  store i128 %32, ptr %11, align 16, !tbaa !47
  %33 = load i128, ptr %11, align 16, !tbaa !47
  %34 = trunc i128 %33 to i64
  %35 = load ptr, ptr %7, align 8, !tbaa !3
  %36 = getelementptr inbounds nuw %struct.sp_int, ptr %35, i32 0, i32 2
  %37 = load i32, ptr %8, align 4, !tbaa !8
  %38 = zext i32 %37 to i64
  %39 = getelementptr inbounds nuw [129 x i64], ptr %36, i64 0, i64 %38
  store i64 %34, ptr %39, align 8, !tbaa !16
  %40 = load i128, ptr %11, align 16, !tbaa !47
  %41 = lshr i128 %40, 64
  store i128 %41, ptr %11, align 16, !tbaa !47
  br label %42

42:                                               ; preds = %20
  %43 = load i32, ptr %10, align 4, !tbaa !8
  %44 = add i32 %43, 1
  store i32 %44, ptr %10, align 4, !tbaa !8
  %45 = load i32, ptr %8, align 4, !tbaa !8
  %46 = add i32 %45, 1
  store i32 %46, ptr %8, align 4, !tbaa !8
  br label %13, !llvm.loop !49

47:                                               ; preds = %13
  %48 = load i128, ptr %11, align 16, !tbaa !47
  %49 = icmp ugt i128 %48, 0
  br i1 %49, label %50, label %68

50:                                               ; preds = %47
  %51 = load i32, ptr %8, align 4, !tbaa !8
  %52 = load ptr, ptr %7, align 8, !tbaa !3
  %53 = getelementptr inbounds nuw %struct.sp_int, ptr %52, i32 0, i32 1
  %54 = load i16, ptr %53, align 2, !tbaa !12
  %55 = zext i16 %54 to i32
  %56 = icmp eq i32 %51, %55
  br i1 %56, label %57, label %58

57:                                               ; preds = %50
  store i32 -98, ptr %9, align 4, !tbaa !8
  br label %67

58:                                               ; preds = %50
  %59 = load i128, ptr %11, align 16, !tbaa !47
  %60 = trunc i128 %59 to i64
  %61 = load ptr, ptr %7, align 8, !tbaa !3
  %62 = getelementptr inbounds nuw %struct.sp_int, ptr %61, i32 0, i32 2
  %63 = load i32, ptr %8, align 4, !tbaa !8
  %64 = add i32 %63, 1
  store i32 %64, ptr %8, align 4, !tbaa !8
  %65 = zext i32 %63 to i64
  %66 = getelementptr inbounds nuw [129 x i64], ptr %62, i64 0, i64 %65
  store i64 %60, ptr %66, align 8, !tbaa !16
  br label %67

67:                                               ; preds = %58, %57
  br label %68

68:                                               ; preds = %67, %47
  %69 = load i32, ptr %8, align 4, !tbaa !8
  %70 = trunc i32 %69 to i16
  %71 = load ptr, ptr %7, align 8, !tbaa !3
  %72 = getelementptr inbounds nuw %struct.sp_int, ptr %71, i32 0, i32 0
  store i16 %70, ptr %72, align 8, !tbaa !15
  br label %73

73:                                               ; preds = %68
  call void @llvm.lifetime.start.p0(i64 4, ptr %12) #8
  %74 = load ptr, ptr %7, align 8, !tbaa !3
  %75 = getelementptr inbounds nuw %struct.sp_int, ptr %74, i32 0, i32 0
  %76 = load i16, ptr %75, align 8, !tbaa !15
  %77 = zext i16 %76 to i32
  %78 = icmp sgt i32 %77, 0
  br i1 %78, label %79, label %108

79:                                               ; preds = %73
  %80 = load ptr, ptr %7, align 8, !tbaa !3
  %81 = getelementptr inbounds nuw %struct.sp_int, ptr %80, i32 0, i32 0
  %82 = load i16, ptr %81, align 8, !tbaa !15
  %83 = zext i16 %82 to i32
  %84 = sub nsw i32 %83, 1
  store i32 %84, ptr %12, align 4, !tbaa !8
  br label %85

85:                                               ; preds = %99, %79
  %86 = load i32, ptr %12, align 4, !tbaa !8
  %87 = icmp sge i32 %86, 0
  br i1 %87, label %88, label %96

88:                                               ; preds = %85
  %89 = load ptr, ptr %7, align 8, !tbaa !3
  %90 = getelementptr inbounds nuw %struct.sp_int, ptr %89, i32 0, i32 2
  %91 = load i32, ptr %12, align 4, !tbaa !8
  %92 = sext i32 %91 to i64
  %93 = getelementptr inbounds [129 x i64], ptr %90, i64 0, i64 %92
  %94 = load i64, ptr %93, align 8, !tbaa !16
  %95 = icmp eq i64 %94, 0
  br label %96

96:                                               ; preds = %88, %85
  %97 = phi i1 [ false, %85 ], [ %95, %88 ]
  br i1 %97, label %98, label %102

98:                                               ; preds = %96
  br label %99

99:                                               ; preds = %98
  %100 = load i32, ptr %12, align 4, !tbaa !8
  %101 = add nsw i32 %100, -1
  store i32 %101, ptr %12, align 4, !tbaa !8
  br label %85, !llvm.loop !50

102:                                              ; preds = %96
  %103 = load i32, ptr %12, align 4, !tbaa !8
  %104 = add nsw i32 %103, 1
  %105 = trunc i32 %104 to i16
  %106 = load ptr, ptr %7, align 8, !tbaa !3
  %107 = getelementptr inbounds nuw %struct.sp_int, ptr %106, i32 0, i32 0
  store i16 %105, ptr %107, align 8, !tbaa !15
  br label %108

108:                                              ; preds = %102, %73
  call void @llvm.lifetime.end.p0(i64 4, ptr %12) #8
  br label %109

109:                                              ; preds = %108
  br label %110

110:                                              ; preds = %109
  %111 = load i32, ptr %9, align 4, !tbaa !8
  call void @llvm.lifetime.end.p0(i64 16, ptr %11) #8
  call void @llvm.lifetime.end.p0(i64 4, ptr %10) #8
  call void @llvm.lifetime.end.p0(i64 4, ptr %9) #8
  ret i32 %111
}

; Function Attrs: nounwind uwtable
define i32 @sp_mul_d(ptr noundef %0, i64 noundef %1, ptr noundef %2) #0 {
  %4 = alloca ptr, align 8
  %5 = alloca i64, align 8
  %6 = alloca ptr, align 8
  %7 = alloca i32, align 4
  store ptr %0, ptr %4, align 8, !tbaa !3
  store i64 %1, ptr %5, align 8, !tbaa !16
  store ptr %2, ptr %6, align 8, !tbaa !3
  call void @llvm.lifetime.start.p0(i64 4, ptr %7) #8
  store i32 0, ptr %7, align 4, !tbaa !8
  %8 = load ptr, ptr %4, align 8, !tbaa !3
  %9 = icmp eq ptr %8, null
  br i1 %9, label %13, label %10

10:                                               ; preds = %3
  %11 = load ptr, ptr %6, align 8, !tbaa !3
  %12 = icmp eq ptr %11, null
  br i1 %12, label %13, label %14

13:                                               ; preds = %10, %3
  store i32 -98, ptr %7, align 4, !tbaa !8
  br label %14

14:                                               ; preds = %13, %10
  %15 = load i32, ptr %7, align 4, !tbaa !8
  %16 = icmp eq i32 %15, 0
  br i1 %16, label %17, label %28

17:                                               ; preds = %14
  %18 = load ptr, ptr %4, align 8, !tbaa !3
  %19 = getelementptr inbounds nuw %struct.sp_int, ptr %18, i32 0, i32 0
  %20 = load i16, ptr %19, align 8, !tbaa !15
  %21 = zext i16 %20 to i32
  %22 = load ptr, ptr %6, align 8, !tbaa !3
  %23 = getelementptr inbounds nuw %struct.sp_int, ptr %22, i32 0, i32 1
  %24 = load i16, ptr %23, align 2, !tbaa !12
  %25 = zext i16 %24 to i32
  %26 = icmp sgt i32 %21, %25
  br i1 %26, label %27, label %28

27:                                               ; preds = %17
  store i32 -98, ptr %7, align 4, !tbaa !8
  br label %28

28:                                               ; preds = %27, %17, %14
  %29 = load i32, ptr %7, align 4, !tbaa !8
  %30 = icmp eq i32 %29, 0
  br i1 %30, label %31, label %36

31:                                               ; preds = %28
  %32 = load ptr, ptr %4, align 8, !tbaa !3
  %33 = load i64, ptr %5, align 8, !tbaa !16
  %34 = load ptr, ptr %6, align 8, !tbaa !3
  %35 = call i32 @_sp_mul_d(ptr noundef %32, i64 noundef %33, ptr noundef %34, i32 noundef 0)
  store i32 %35, ptr %7, align 4, !tbaa !8
  br label %36

36:                                               ; preds = %31, %28
  %37 = load i32, ptr %7, align 4, !tbaa !8
  call void @llvm.lifetime.end.p0(i64 4, ptr %7) #8
  ret i32 %37
}