; Function Attrs: nofree norecurse nosync nounwind memory(argmem: readwrite) uwtable
define range(i32 -98, 1) i32 @sp_mul_d(ptr noundef readonly captures(address_is_null) %0, i64 noundef %1, ptr noundef captures(address_is_null) %2) local_unnamed_addr #8 {
  %4 = icmp ne ptr %0, null
  %5 = icmp ne ptr %2, null
  %or.cond.not = and i1 %4, %5
  br i1 %or.cond.not, label %6, label %_sp_mul_d.exit

6:                                                ; preds = %3
  %7 = load i16, ptr %0, align 8, !tbaa !12
  %8 = getelementptr inbounds nuw i8, ptr %2, i64 2
  %9 = load i16, ptr %8, align 2, !tbaa !10
  %10 = icmp ugt i16 %7, %9
  br i1 %10, label %_sp_mul_d.exit, label %.thread

.thread:                                          ; preds = %6
  %11 = zext i16 %7 to i32
  %.not38.i = icmp eq i16 %7, 0
  br i1 %.not38.i, label %.sink.split.i, label %.lr.ph.i

.lr.ph.i:                                         ; preds = %.thread
  %12 = getelementptr inbounds nuw i8, ptr %0, i64 8
  %13 = zext i64 %1 to i128
  %14 = getelementptr inbounds nuw i8, ptr %2, i64 8
  %wide.trip.count.i = zext i16 %7 to i64
  br label %15

15:                                               ; preds = %15, %.lr.ph.i
  %indvars.iv.i = phi i64 [ 0, %.lr.ph.i ], [ %indvars.iv.next.i, %15 ]
  %.02836.i = phi i128 [ 0, %.lr.ph.i ], [ %23, %15 ]
  %16 = getelementptr inbounds nuw [129 x i64], ptr %12, i64 0, i64 %indvars.iv.i
  %17 = load i64, ptr %16, align 8, !tbaa !8
  %18 = zext i64 %17 to i128
  %19 = mul nuw i128 %18, %13
  %20 = add nuw i128 %19, %.02836.i
  %21 = trunc i128 %20 to i64
  %22 = getelementptr inbounds nuw [129 x i64], ptr %14, i64 0, i64 %indvars.iv.i
  store i64 %21, ptr %22, align 8, !tbaa !8
  %23 = lshr i128 %20, 64
  %indvars.iv.next.i = add nuw nsw i64 %indvars.iv.i, 1
  %exitcond.not.i = icmp eq i64 %indvars.iv.next.i, %wide.trip.count.i
  br i1 %exitcond.not.i, label %._crit_edge.i, label %15, !llvm.loop !30

._crit_edge.i:                                    ; preds = %15
  %.not.i = icmp ult i128 %20, 18446744073709551616
  br i1 %.not.i, label %30, label %24

24:                                               ; preds = %._crit_edge.i
  %25 = icmp eq i16 %7, %9
  br i1 %25, label %30, label %26

26:                                               ; preds = %24
  %27 = trunc nuw i128 %23 to i64
  %28 = add nuw nsw i32 %11, 1
  %29 = getelementptr inbounds nuw [129 x i64], ptr %14, i64 0, i64 %wide.trip.count.i
  store i64 %27, ptr %29, align 8, !tbaa !8
  br label %30

30:                                               ; preds = %26, %24, %._crit_edge.i
  %.1.i = phi i32 [ %28, %26 ], [ %11, %._crit_edge.i ], [ %11, %24 ]
  %.030.i = phi i32 [ 0, %26 ], [ 0, %._crit_edge.i ], [ -98, %24 ]
  %31 = trunc i32 %.1.i to i16
  store i16 %31, ptr %2, align 8, !tbaa !12
  %32 = and i32 %.1.i, 65535
  %.not33.i = icmp eq i32 %32, 0
  br i1 %.not33.i, label %_sp_mul_d.exit, label %.preheader.i

.preheader.i:                                     ; preds = %30
  %33 = zext nneg i32 %32 to i64
  br label %34

34:                                               ; preds = %36, %.preheader.i
  %indvars.iv43.i = phi i64 [ %33, %.preheader.i ], [ %indvars.iv.next44.i, %36 ]
  %35 = icmp sgt i64 %indvars.iv43.i, 0
  br i1 %35, label %36, label %.sink.split.i

36:                                               ; preds = %34
  %indvars.iv.next44.i = add nsw i64 %indvars.iv43.i, -1
  %37 = getelementptr inbounds nuw [129 x i64], ptr %14, i64 0, i64 %indvars.iv.next44.i
  %38 = load i64, ptr %37, align 8, !tbaa !8
  %39 = icmp eq i64 %38, 0
  br i1 %39, label %34, label %.critedge.split.loop.exit53.i, !llvm.loop !31

.critedge.split.loop.exit53.i:                    ; preds = %36
  %40 = trunc i64 %indvars.iv43.i to i16
  br label %.sink.split.i

.sink.split.i:                                    ; preds = %34, %.critedge.split.loop.exit53.i, %.thread
  %.sink.i = phi i16 [ 0, %.thread ], [ %40, %.critedge.split.loop.exit53.i ], [ 0, %34 ]
  %.03052.ph.i = phi i32 [ 0, %.thread ], [ %.030.i, %.critedge.split.loop.exit53.i ], [ %.030.i, %34 ]
  store i16 %.sink.i, ptr %2, align 8, !tbaa !12
  br label %_sp_mul_d.exit

_sp_mul_d.exit:                                   ; preds = %3, %6, %.sink.split.i, %30
  %.1 = phi i32 [ %.030.i, %30 ], [ %.03052.ph.i, %.sink.split.i ], [ -98, %6 ], [ -98, %3 ]
  ret i32 %.1
}